; Function Attrs: mustprogress nofree norecurse nosync nounwind willreturn memory(none) uwtable
define range(i32 0, 720896) i32 @_ZN9grpc_core7Timeout10FromMillisEl(i64 noundef %0) local_unnamed_addr #3 align 2 {
  %2 = icmp slt i64 %0, 1
  br i1 %2, label %_ZN9grpc_core7Timeout11FromSecondsEl.exit, label %3

3:                                                ; preds = %1
  %4 = icmp samesign ult i64 %0, 1000
  br i1 %4, label %5, label %7

5:                                                ; preds = %3
  %6 = trunc nuw nsw i64 %0 to i16
  br label %_ZN9grpc_core7Timeout11FromSecondsEl.exit

7:                                                ; preds = %3
  %8 = icmp samesign ult i64 %0, 10000
  br i1 %8, label %9, label %13

9:                                                ; preds = %7
  %10 = trunc nuw i64 %0 to i16
  %.lhs.trunc = add nuw nsw i16 %10, 9
  %11 = udiv i16 %.lhs.trunc, 10
  %12 = urem i16 %11, 100
  %.not16.not = icmp eq i16 %12, 0
  br i1 %.not16.not, label %.thread.thread, label %_ZN9grpc_core7Timeout11FromSecondsEl.exit

13:                                               ; preds = %7
  %14 = icmp samesign ult i64 %0, 100000
  br i1 %14, label %15, label %19

15:                                               ; preds = %13
  %16 = trunc nuw i64 %0 to i32
  %.lhs.trunc36 = add nuw nsw i32 %16, 99
  %17 = udiv i32 %.lhs.trunc36, 100
  %.lhs.trunc38 = trunc nuw i32 %17 to i16
  %18 = urem i16 %.lhs.trunc38, 10
  %.not.not = icmp eq i16 %18, 0
  br i1 %.not.not, label %.thread.thread, label %_ZN9grpc_core7Timeout11FromSecondsEl.exit

19:                                               ; preds = %13
  %20 = icmp samesign ugt i64 %0, 9223372036854774808
  br i1 %20, label %_ZN9grpc_core7Timeout11FromSecondsEl.exit, label %.thread

.thread.thread:                                   ; preds = %15, %9
  %21 = trunc i64 %0 to i32
  %.lhs.trunc41 = add i32 %21, 999
  %22 = udiv i32 %.lhs.trunc41, 1000
  %.zext = zext nneg i32 %22 to i64
  br label %26

.thread:                                          ; preds = %19
  %23 = add nuw nsw i64 %0, 999
  %24 = udiv i64 %23, 1000
  %25 = icmp samesign ult i64 %0, 999001
  br i1 %25, label %26, label %29

26:                                               ; preds = %.thread.thread, %.thread
  %27 = phi i64 [ %.zext, %.thread.thread ], [ %24, %.thread ]
  %.lhs.trunc30 = trunc nuw i64 %27 to i16
  %28 = urem i16 %.lhs.trunc30, 60
  %.not17.i = icmp eq i16 %28, 0
  br i1 %.not17.i, label %.thread.thread.i, label %_ZN9grpc_core7Timeout11FromSecondsEl.exit

29:                                               ; preds = %.thread
  %30 = icmp samesign ult i64 %0, 9999001
  br i1 %30, label %31, label %35

31:                                               ; preds = %29
  %32 = trunc nuw i64 %24 to i16
  %.lhs.trunc.i = add nuw nsw i16 %32, 9
  %33 = udiv i16 %.lhs.trunc.i, 10
  %.lhs.trunc27.i = mul nuw nsw i16 %33, 10
  %34 = urem i16 %.lhs.trunc27.i, 60
  %.not16.not.i = icmp eq i16 %34, 0
  br i1 %.not16.not.i, label %.thread.thread.i, label %_ZN9grpc_core7Timeout11FromSecondsEl.exit

35:                                               ; preds = %29
  %36 = icmp samesign ult i64 %0, 99999001
  br i1 %36, label %37, label %49

37:                                               ; preds = %35
  %38 = trunc nuw i64 %24 to i32
  %.lhs.trunc29.i = add nuw nsw i32 %38, 99
  %39 = udiv i32 %.lhs.trunc29.i, 100
  %.lhs.trunc31.i = mul nuw nsw i32 %39, 100
  %40 = urem i32 %.lhs.trunc31.i, 60
  %.not.not.i = icmp eq i32 %40, 0
  br i1 %.not.not.i, label %.thread.i, label %41

41:                                               ; preds = %37
  %42 = trunc nuw i32 %39 to i16
  br label %_ZN9grpc_core7Timeout11FromSecondsEl.exit

.thread.thread.i:                                 ; preds = %31, %26
  %.pre-phi = phi i16 [ %32, %31 ], [ %.lhs.trunc30, %26 ]
  %.lhs.trunc32 = add i16 %.pre-phi, 59
  %43 = udiv i16 %.lhs.trunc32, 60
  %.zext33 = zext nneg i16 %43 to i64
  br label %46

.thread.i:                                        ; preds = %37
  %.lhs.trunc36.i = add nuw nsw i32 %38, 59
  %44 = udiv i32 %.lhs.trunc36.i, 60
  %.zext.i = zext nneg i32 %44 to i64
  %45 = icmp samesign ult i64 %0, 59940001
  br i1 %45, label %46, label %.thread35.i

46:                                               ; preds = %.thread.i, %.thread.thread.i
  %47 = phi i64 [ %.zext33, %.thread.thread.i ], [ %.zext.i, %.thread.i ]
  %.lhs.trunc34 = trunc i64 %47 to i16
  %48 = urem i16 %.lhs.trunc34, 60
  %.not17.i.i = icmp eq i16 %48, 0
  br i1 %.not17.i.i, label %.thread.i.i, label %_ZN9grpc_core7Timeout11FromSecondsEl.exit

49:                                               ; preds = %35
  %50 = add nuw nsw i64 %24, 59
  %51 = udiv i64 %50, 60
  %52 = icmp samesign ult i64 %0, 599940001
  br i1 %52, label %.thread35.i, label %57

.thread35.i:                                      ; preds = %49, %.thread.i
  %53 = phi i64 [ %51, %49 ], [ %.zext.i, %.thread.i ]
  %54 = trunc nuw i64 %53 to i16
  %.lhs.trunc.i.i = add nuw nsw i16 %54, 9
  %55 = udiv i16 %.lhs.trunc.i.i, 10
  %.lhs.trunc27.i.i = mul nuw nsw i16 %55, 10
  %56 = urem i16 %.lhs.trunc27.i.i, 60
  %.not16.not.i.i = icmp eq i16 %56, 0
  br i1 %.not16.not.i.i, label %.thread.i.i, label %_ZN9grpc_core7Timeout11FromSecondsEl.exit

57:                                               ; preds = %49
  %58 = icmp samesign ult i64 %0, 5999940001
  br i1 %58, label %59, label %.thread.i.i

59:                                               ; preds = %57
  %60 = trunc nuw i64 %51 to i32
  %.lhs.trunc29.i.i = add nuw nsw i32 %60, 99
  %61 = udiv i32 %.lhs.trunc29.i.i, 100
  %.lhs.trunc31.i.i = mul nuw nsw i32 %61, 100
  %62 = urem i32 %.lhs.trunc31.i.i, 60
  %.not.not.i.i = icmp eq i32 %62, 0
  br i1 %.not.not.i.i, label %.thread.i.i, label %63

63:                                               ; preds = %59
  %64 = trunc nuw i32 %61 to i16
  br label %_ZN9grpc_core7Timeout11FromSecondsEl.exit

.thread.i.i:                                      ; preds = %59, %57, %.thread35.i, %46
  %65 = phi i64 [ %51, %59 ], [ %51, %57 ], [ %53, %.thread35.i ], [ %47, %46 ]
  %66 = add nuw nsw i64 %65, 59
  %67 = udiv i64 %66, 60
  %68 = tail call i64 @llvm.umin.i64(i64 %67, i64 27000)
  %spec.select.i.i.i = trunc nuw nsw i64 %68 to i16
  br label %_ZN9grpc_core7Timeout11FromSecondsEl.exit

_ZN9grpc_core7Timeout11FromSecondsEl.exit:        ; preds = %46, %26, %15, %.thread.i.i, %63, %.thread35.i, %41, %31, %9, %19, %1, %5
  %.sroa.0.sroa.0.0 = phi i16 [ %6, %5 ], [ 1, %1 ], [ 27000, %19 ], [ %11, %9 ], [ %42, %41 ], [ %33, %31 ], [ %spec.select.i.i.i, %.thread.i.i ], [ %64, %63 ], [ %55, %.thread35.i ], [ %.lhs.trunc38, %15 ], [ %.lhs.trunc30, %26 ], [ %.lhs.trunc34, %46 ]
  %.sroa.0.sroa.7.0 = phi i32 [ 65536, %5 ], [ 0, %1 ], [ 655360, %19 ], [ 131072, %9 ], [ 393216, %41 ], [ 327680, %31 ], [ 655360, %.thread.i.i ], [ 589824, %63 ], [ 524288, %.thread35.i ], [ 196608, %15 ], [ 262144, %26 ], [ 458752, %46 ]
  %.sroa.0.sroa.0.0.insert.ext = zext i16 %.sroa.0.sroa.0.0 to i32
  %.sroa.0.sroa.0.0.insert.insert = or disjoint i32 %.sroa.0.sroa.7.0, %.sroa.0.sroa.0.0.insert.ext
  ret i32 %.sroa.0.sroa.0.0.insert.insert
}